target datalayout = "e-m:e-p270:32:32-p271:32:32-p272:64:64-i64:64-i128:128-f80:128-n8:16:32:64-S128"
target triple = "x86_64-pc-linux-gnu"

; Function Attrs: inlinehint mustprogress nounwind uwtable
define internal noundef signext i8 @_ZL9U_SUCCESS10UErrorCode(i32 noundef %0) #1 {
  %2 = alloca i32, align 4
  store i32 %0, ptr %2, align 4, !tbaa !15
  %3 = load i32, ptr %2, align 4, !tbaa !15
  %4 = icmp sle i32 %3, 0
  %5 = zext i1 %4 to i8
  ret i8 %5
}

; Function Attrs: mustprogress uwtable
define ptr @ubrk_getLocaleByType_77(ptr noundef %0, i32 noundef %1, ptr noundef %2) #0 {
  %4 = alloca ptr, align 8
  %5 = alloca ptr, align 8
  %6 = alloca i32, align 4
  %7 = alloca ptr, align 8
  store ptr %0, ptr %5, align 8, !tbaa !19
  store i32 %1, ptr %6, align 4, !tbaa !37
  store ptr %2, ptr %7, align 8, !tbaa !14
  %8 = load ptr, ptr %5, align 8, !tbaa !19
  %9 = icmp eq ptr %8, null
  br i1 %9, label %10, label %18

10:                                               ; preds = %3
  %11 = load ptr, ptr %7, align 8, !tbaa !14
  %12 = load i32, ptr %11, align 4, !tbaa !15
  %13 = call noundef signext i8 @_ZL9U_SUCCESS10UErrorCode(i32 noundef %12)
  %14 = icmp ne i8 %13, 0
  br i1 %14, label %15, label %17

15:                                               ; preds = %10
  %16 = load ptr, ptr %7, align 8, !tbaa !14
  store i32 1, ptr %16, align 4, !tbaa !15
  br label %17

17:                                               ; preds = %15, %10
  store ptr null, ptr %4, align 8
  br label %23

18:                                               ; preds = %3
  %19 = load ptr, ptr %5, align 8, !tbaa !19
  %20 = load i32, ptr %6, align 4, !tbaa !37
  %21 = load ptr, ptr %7, align 8, !tbaa !14
  %22 = call noundef ptr @_ZNK6icu_7713BreakIterator11getLocaleIDE18ULocDataLocaleTypeR10UErrorCode(ptr noundef nonnull align 8 dereferenceable(32) %19, i32 noundef %20, ptr noundef nonnull align 4 dereferenceable(4) %21)
  store ptr %22, ptr %4, align 8
  br label %23

23:                                               ; preds = %18, %17
  %24 = load ptr, ptr %4, align 8
  ret ptr %24
}