; Function Attrs: mustprogress uwtable
define noundef ptr @ubrk_getLocaleByType_77(ptr noundef %0, i32 noundef %1, ptr noundef %2) local_unnamed_addr #0 {
  %4 = icmp eq ptr %0, null
  br i1 %4, label %5, label %9

5:                                                ; preds = %3
  %6 = load i32, ptr %2, align 4, !tbaa !3
  %7 = icmp sgt i32 %6, 0
  br i1 %7, label %11, label %8

8:                                                ; preds = %5
  store i32 1, ptr %2, align 4, !tbaa !3
  br label %11

9:                                                ; preds = %3
  %10 = tail call noundef ptr @_ZNK6icu_7713BreakIterator11getLocaleIDE18ULocDataLocaleTypeR10UErrorCode(ptr noundef nonnull align 8 dereferenceable(32) %0, i32 noundef %1, ptr noundef nonnull align 4 dereferenceable(4) %2)
  br label %11

11:                                               ; preds = %5, %8, %9
  %.0 = phi ptr [ %10, %9 ], [ null, %8 ], [ null, %5 ]
  ret ptr %.0
}